target datalayout = "e-m:e-p270:32:32-p271:32:32-p272:64:64-i64:64-i128:128-f80:128-n8:16:32:64-S128"
target triple = "x86_64-unknown-linux-gnu"

%"class.rocksdb::Slice" = type { ptr, i64 }
%"struct.rocksdb::WriteBatch::ProtectionInfo" = type { %"class.rocksdb::autovector" }
%"class.rocksdb::autovector" = type { i64, [64 x i8], ptr, %"class.std::vector.13" }
%"class.std::vector.13" = type { %"struct.std::_Vector_base.14" }
%"struct.std::_Vector_base.14" = type { %"struct.std::_Vector_base<rocksdb::ProtectionInfoKVOC<unsigned long>, std::allocator<rocksdb::ProtectionInfoKVOC<unsigned long>>>::_Vector_impl" }
%"struct.std::_Vector_base<rocksdb::ProtectionInfoKVOC<unsigned long>, std::allocator<rocksdb::ProtectionInfoKVOC<unsigned long>>>::_Vector_impl" = type { %"struct.std::_Vector_base<rocksdb::ProtectionInfoKVOC<unsigned long>, std::allocator<rocksdb::ProtectionInfoKVOC<unsigned long>>>::_Vector_impl_data" }
%"struct.std::_Vector_base<rocksdb::ProtectionInfoKVOC<unsigned long>, std::allocator<rocksdb::ProtectionInfoKVOC<unsigned long>>>::_Vector_impl_data" = type { ptr, ptr, ptr }
%"class.rocksdb::WriteBatch::Handler" = type { ptr }
%"class.rocksdb::Status" = type { i8, i8, i8, i8, i8, i8, %"class.std::unique_ptr.24" }
%"class.std::unique_ptr.24" = type { %"struct.std::__uniq_ptr_data.25" }
%"struct.std::__uniq_ptr_data.25" = type { %"class.std::__uniq_ptr_impl.26" }
%"class.std::__uniq_ptr_impl.26" = type { %"class.std::tuple.27" }
%"class.std::tuple.27" = type { %"struct.std::_Tuple_impl.28" }
%"struct.std::_Tuple_impl.28" = type { %"struct.std::_Head_base.31" }
%"struct.std::_Head_base.31" = type { ptr }
%"class.rocksdb::ProtectionInfoKVOC" = type { %"class.rocksdb::ProtectionInfoKVO" }
%"class.rocksdb::ProtectionInfoKVO" = type { %"class.rocksdb::ProtectionInfo" }
%"class.rocksdb::ProtectionInfo" = type { i64 }
%"class.rocksdb::(anonymous namespace)::ProtectionInfoUpdater" = type { %"class.rocksdb::WriteBatch::Handler", ptr }

@.str.28 = private unnamed_addr constant [1 x i8] zeroinitializer, align 1

; Function Attrs: mustprogress nounwind uwtable
define linkonce_odr void @_ZNSt10_Head_baseILm1ESt14default_deleteIA_KcELb1EEC2Ev(ptr noundef nonnull align 1 dereferenceable(1) %this) unnamed_addr #1 comdat align 2 {
entry:
  %this.addr = alloca ptr, align 8
  store ptr %this, ptr %this.addr, align 8
  ret void
}

; Function Attrs: mustprogress nounwind uwtable
define linkonce_odr void @_ZNSt10_Head_baseILm0EPKcLb0EEC2Ev(ptr noundef nonnull align 8 dereferenceable(8) %this) unnamed_addr #1 comdat align 2 {
entry:
  %this.addr = alloca ptr, align 8
  store ptr %this, ptr %this.addr, align 8
  %this1 = load ptr, ptr %this.addr, align 8
  %_M_head_impl = getelementptr inbounds %"struct.std::_Head_base.31", ptr %this1, i32 0, i32 0
  store ptr null, ptr %_M_head_impl, align 8
  ret void
}

; Function Attrs: mustprogress uwtable
define linkonce_odr void @_ZNSt11_Tuple_implILm1EJSt14default_deleteIA_KcEEEC2Ev(ptr noundef nonnull align 1 dereferenceable(1) %this) unnamed_addr #0 comdat align 2 {
entry:
  %this.addr = alloca ptr, align 8
  store ptr %this, ptr %this.addr, align 8
  %this1 = load ptr, ptr %this.addr, align 8
  call void @_ZNSt10_Head_baseILm1ESt14default_deleteIA_KcELb1EEC2Ev(ptr noundef nonnull align 1 dereferenceable(1) %this1)
  ret void
}

; Function Attrs: noreturn nounwind uwtable
define linkonce_odr hidden void @__clang_call_terminate(ptr noundef %0) #13 comdat {
  %2 = call ptr @__cxa_begin_catch(ptr %0) #3
  call void @_ZSt9terminatev() #18
  unreachable
}

; Function Attrs: mustprogress uwtable
define linkonce_odr void @_ZNSt11_Tuple_implILm0EJPKcSt14default_deleteIA_S0_EEEC2Ev(ptr noundef nonnull align 8 dereferenceable(8) %this) unnamed_addr #0 comdat align 2 {
entry:
  %this.addr = alloca ptr, align 8
  store ptr %this, ptr %this.addr, align 8
  %this1 = load ptr, ptr %this.addr, align 8
  call void @_ZNSt11_Tuple_implILm1EJSt14default_deleteIA_KcEEEC2Ev(ptr noundef nonnull align 1 dereferenceable(1) %this1)
  call void @_ZNSt10_Head_baseILm0EPKcLb0EEC2Ev(ptr noundef nonnull align 8 dereferenceable(8) %this1)
  ret void
}

; Function Attrs: mustprogress nounwind uwtable
define linkonce_odr void @_ZNSt5tupleIJPKcSt14default_deleteIA_S0_EEEC2ILb1ETnNSt9enable_ifIXclsr17_TupleConstraintsIXT_ES1_S4_EE37__is_implicitly_default_constructibleEEbE4typeELb1EEEv(ptr noundef nonnull align 8 dereferenceable(8) %this) unnamed_addr #1 comdat align 2 personality ptr @__gxx_personality_v0 {
entry:
  %this.addr = alloca ptr, align 8
  store ptr %this, ptr %this.addr, align 8
  %this1 = load ptr, ptr %this.addr, align 8
  invoke void @_ZNSt11_Tuple_implILm0EJPKcSt14default_deleteIA_S0_EEEC2Ev(ptr noundef nonnull align 8 dereferenceable(8) %this1)
          to label %invoke.cont unwind label %terminate.lpad

invoke.cont:                                      ; preds = %entry
  ret void

terminate.lpad:                                   ; preds = %entry
  %0 = landingpad { ptr, i32 }
          catch ptr null
  %1 = extractvalue { ptr, i32 } %0, 0
  call void @__clang_call_terminate(ptr %1) #18
  unreachable
}

; Function Attrs: mustprogress nounwind uwtable
define linkonce_odr void @_ZNSt15__uniq_ptr_implIKcSt14default_deleteIA_S0_EEC2Ev(ptr noundef nonnull align 8 dereferenceable(8) %this) unnamed_addr #1 comdat align 2 {
entry:
  %this.addr = alloca ptr, align 8
  store ptr %this, ptr %this.addr, align 8
  %this1 = load ptr, ptr %this.addr, align 8
  %_M_t = getelementptr inbounds %"class.std::__uniq_ptr_impl.26", ptr %this1, i32 0, i32 0
  call void @_ZNSt5tupleIJPKcSt14default_deleteIA_S0_EEEC2ILb1ETnNSt9enable_ifIXclsr17_TupleConstraintsIXT_ES1_S4_EE37__is_implicitly_default_constructibleEEbE4typeELb1EEEv(ptr noundef nonnull align 8 dereferenceable(8) %_M_t) #3
  ret void
}

; Function Attrs: mustprogress nounwind uwtable
define linkonce_odr void @_ZNSt15__uniq_ptr_dataIKcSt14default_deleteIA_S0_ELb1ELb1EEC2Ev(ptr noundef nonnull align 8 dereferenceable(8) %this) unnamed_addr #1 comdat align 2 {
entry:
  %this.addr = alloca ptr, align 8
  store ptr %this, ptr %this.addr, align 8
  %this1 = load ptr, ptr %this.addr, align 8
  call void @_ZNSt15__uniq_ptr_implIKcSt14default_deleteIA_S0_EEC2Ev(ptr noundef nonnull align 8 dereferenceable(8) %this1) #3
  ret void
}

; Function Attrs: mustprogress nounwind uwtable
define linkonce_odr void @_ZNSt10unique_ptrIA_KcSt14default_deleteIS1_EEC2IS3_vEEDn(ptr noundef nonnull align 8 dereferenceable(8) %this, ptr %0) unnamed_addr #1 comdat align 2 {
entry:
  %this.addr = alloca ptr, align 8
  %.addr = alloca ptr, align 8
  store ptr %this, ptr %this.addr, align 8
  store ptr %0, ptr %.addr, align 8
  %this1 = load ptr, ptr %this.addr, align 8
  %_M_t = getelementptr inbounds %"class.std::unique_ptr.24", ptr %this1, i32 0, i32 0
  call void @llvm.memset.p0.i64(ptr align 8 %_M_t, i8 0, i64 8, i1 false)
  call void @_ZNSt15__uniq_ptr_dataIKcSt14default_deleteIA_S0_ELb1ELb1EEC2Ev(ptr noundef nonnull align 8 dereferenceable(8) %_M_t) #3
  ret void
}

; Function Attrs: mustprogress nounwind uwtable
define linkonce_odr void @_ZN7rocksdb14ProtectionInfoImEC2Em(ptr noundef nonnull align 8 dereferenceable(8) %this, i64 noundef %val) unnamed_addr #1 comdat align 2 {
entry:
  %this.addr = alloca ptr, align 8
  %val.addr = alloca i64, align 8
  store ptr %this, ptr %this.addr, align 8
  store i64 %val, ptr %val.addr, align 8
  %this1 = load ptr, ptr %this.addr, align 8
  %val_ = getelementptr inbounds %"class.rocksdb::ProtectionInfo", ptr %this1, i32 0, i32 0
  %0 = load i64, ptr %val.addr, align 8
  store i64 %0, ptr %val_, align 8
  ret void
}

; Function Attrs: mustprogress nounwind uwtable
define linkonce_odr noundef i64 @_ZNK7rocksdb5Slice4sizeEv(ptr noundef nonnull align 8 dereferenceable(16) %this) #1 comdat align 2 {
entry:
  %this.addr = alloca ptr, align 8
  store ptr %this, ptr %this.addr, align 8
  %this1 = load ptr, ptr %this.addr, align 8
  %size_ = getelementptr inbounds %"class.rocksdb::Slice", ptr %this1, i32 0, i32 1
  %0 = load i64, ptr %size_, align 8
  ret i64 %0
}

; Function Attrs: mustprogress nounwind uwtable
define linkonce_odr noundef ptr @_ZNK7rocksdb5Slice4dataEv(ptr noundef nonnull align 8 dereferenceable(16) %this) #1 comdat align 2 {
entry:
  %this.addr = alloca ptr, align 8
  store ptr %this, ptr %this.addr, align 8
  %this1 = load ptr, ptr %this.addr, align 8
  %data_ = getelementptr inbounds %"class.rocksdb::Slice", ptr %this1, i32 0, i32 0
  %0 = load ptr, ptr %data_, align 8
  ret ptr %0
}

; Function Attrs: mustprogress nounwind uwtable
define linkonce_odr void @_ZN7rocksdb6StatusC2Ev(ptr noundef nonnull align 8 dereferenceable(16) %this) unnamed_addr #1 comdat align 2 {
entry:
  %this.addr = alloca ptr, align 8
  store ptr %this, ptr %this.addr, align 8
  %this1 = load ptr, ptr %this.addr, align 8
  %code_ = getelementptr inbounds %"class.rocksdb::Status", ptr %this1, i32 0, i32 0
  store i8 0, ptr %code_, align 8
  %subcode_ = getelementptr inbounds %"class.rocksdb::Status", ptr %this1, i32 0, i32 1
  store i8 0, ptr %subcode_, align 1
  %sev_ = getelementptr inbounds %"class.rocksdb::Status", ptr %this1, i32 0, i32 2
  store i8 0, ptr %sev_, align 2
  %retryable_ = getelementptr inbounds %"class.rocksdb::Status", ptr %this1, i32 0, i32 3
  store i8 0, ptr %retryable_, align 1
  %data_loss_ = getelementptr inbounds %"class.rocksdb::Status", ptr %this1, i32 0, i32 4
  store i8 0, ptr %data_loss_, align 4
  %scope_ = getelementptr inbounds %"class.rocksdb::Status", ptr %this1, i32 0, i32 5
  store i8 0, ptr %scope_, align 1
  %state_ = getelementptr inbounds %"class.rocksdb::Status", ptr %this1, i32 0, i32 6
  call void @_ZNSt10unique_ptrIA_KcSt14default_deleteIS1_EEC2IS3_vEEDn(ptr noundef nonnull align 8 dereferenceable(8) %state_, ptr null) #3
  ret void
}

; Function Attrs: mustprogress uwtable
define linkonce_odr void @_ZN7rocksdb18ProtectionInfoKVOCImEC2Em(ptr noundef nonnull align 8 dereferenceable(8) %this, i64 noundef %val) unnamed_addr #0 comdat align 2 {
entry:
  %this.addr = alloca ptr, align 8
  %val.addr = alloca i64, align 8
  store ptr %this, ptr %this.addr, align 8
  store i64 %val, ptr %val.addr, align 8
  %this1 = load ptr, ptr %this.addr, align 8
  %kvo_ = getelementptr inbounds %"class.rocksdb::ProtectionInfoKVOC", ptr %this1, i32 0, i32 0
  %0 = load i64, ptr %val.addr, align 8
  call void @_ZN7rocksdb17ProtectionInfoKVOImEC2Em(ptr noundef nonnull align 8 dereferenceable(8) %kvo_, i64 noundef %0)
  ret void
}

; Function Attrs: mustprogress uwtable
define linkonce_odr noundef i64 @_ZNK7rocksdb17ProtectionInfoKVOImE6GetValEv(ptr noundef nonnull align 8 dereferenceable(8) %this) #0 comdat align 2 {
entry:
  %this.addr = alloca ptr, align 8
  store ptr %this, ptr %this.addr, align 8
  %this1 = load ptr, ptr %this.addr, align 8
  %info_ = getelementptr inbounds %"class.rocksdb::ProtectionInfoKVO", ptr %this1, i32 0, i32 0
  %call = call noundef i64 @_ZNK7rocksdb14ProtectionInfoImE6GetValEv(ptr noundef nonnull align 8 dereferenceable(8) %info_)
  ret i64 %call
}

; Function Attrs: mustprogress uwtable
define linkonce_odr void @_ZN7rocksdb17ProtectionInfoKVOImEC2Em(ptr noundef nonnull align 8 dereferenceable(8) %this, i64 noundef %val) unnamed_addr #0 comdat align 2 {
entry:
  %this.addr = alloca ptr, align 8
  %val.addr = alloca i64, align 8
  store ptr %this, ptr %this.addr, align 8
  store i64 %val, ptr %val.addr, align 8
  %this1 = load ptr, ptr %this.addr, align 8
  %info_ = getelementptr inbounds %"class.rocksdb::ProtectionInfoKVO", ptr %this1, i32 0, i32 0
  %0 = load i64, ptr %val.addr, align 8
  call void @_ZN7rocksdb14ProtectionInfoImEC2Em(ptr noundef nonnull align 8 dereferenceable(8) %info_, i64 noundef %0)
  ret void
}

; Function Attrs: mustprogress uwtable
define linkonce_odr noundef i64 @_ZN7rocksdb8NPHash64EPKcmm(ptr noundef %data, i64 noundef %n, i64 noundef %seed) #0 comdat {
entry:
  %data.addr = alloca ptr, align 8
  %n.addr = alloca i64, align 8
  %seed.addr = alloca i64, align 8
  store ptr %data, ptr %data.addr, align 8
  store i64 %n, ptr %n.addr, align 8
  store i64 %seed, ptr %seed.addr, align 8
  %0 = load ptr, ptr %data.addr, align 8
  %1 = load i64, ptr %n.addr, align 8
  %2 = load i64, ptr %seed.addr, align 8
  %call = call noundef i64 @_ZN7rocksdb6Hash64EPKcmm(ptr noundef %0, i64 noundef %1, i64 noundef %2)
  ret i64 %call
}

; Function Attrs: mustprogress uwtable
define linkonce_odr noundef i64 @_ZN7rocksdb16GetSliceNPHash64ERKNS_5SliceEm(ptr noundef nonnull align 8 dereferenceable(16) %s, i64 noundef %seed) #0 comdat {
entry:
  %s.addr = alloca ptr, align 8
  %seed.addr = alloca i64, align 8
  store ptr %s, ptr %s.addr, align 8
  store i64 %seed, ptr %seed.addr, align 8
  %0 = load ptr, ptr %s.addr, align 8
  %call = call noundef ptr @_ZNK7rocksdb5Slice4dataEv(ptr noundef nonnull align 8 dereferenceable(16) %0)
  %1 = load ptr, ptr %s.addr, align 8
  %call1 = call noundef i64 @_ZNK7rocksdb5Slice4sizeEv(ptr noundef nonnull align 8 dereferenceable(16) %1)
  %2 = load i64, ptr %seed.addr, align 8
  %call2 = call noundef i64 @_ZN7rocksdb8NPHash64EPKcmm(ptr noundef %call, i64 noundef %call1, i64 noundef %2)
  ret i64 %call2
}

; Function Attrs: mustprogress nounwind uwtable
define linkonce_odr noundef i64 @_ZNK7rocksdb14ProtectionInfoImE6GetValEv(ptr noundef nonnull align 8 dereferenceable(8) %this) #1 comdat align 2 {
entry:
  %this.addr = alloca ptr, align 8
  store ptr %this, ptr %this.addr, align 8
  %this1 = load ptr, ptr %this.addr, align 8
  %val_ = getelementptr inbounds %"class.rocksdb::ProtectionInfo", ptr %this1, i32 0, i32 0
  %0 = load i64, ptr %val_, align 8
  ret i64 %0
}

; Function Attrs: mustprogress uwtable
define linkonce_odr void @_ZN7rocksdb6Status2OKEv(ptr noalias sret(%"class.rocksdb::Status") align 8 %agg.result) #0 comdat align 2 {
entry:
  %result.ptr = alloca ptr, align 8
  store ptr %agg.result, ptr %result.ptr, align 8
  call void @_ZN7rocksdb6StatusC2Ev(ptr noundef nonnull align 8 dereferenceable(16) %agg.result)
  ret void
}

; Function Attrs: mustprogress uwtable
define linkonce_odr i64 @_ZNK7rocksdb17ProtectionInfoKVOImE8ProtectCEj(ptr noundef nonnull align 8 dereferenceable(8) %this, i32 noundef %column_family_id) #0 comdat align 2 {
entry:
  %retval = alloca %"class.rocksdb::ProtectionInfoKVOC", align 8
  %this.addr = alloca ptr, align 8
  %column_family_id.addr = alloca i32, align 4
  %val = alloca i64, align 8
  store ptr %this, ptr %this.addr, align 8
  store i32 %column_family_id, ptr %column_family_id.addr, align 4
  %this1 = load ptr, ptr %this.addr, align 8
  %call = call noundef i64 @_ZNK7rocksdb17ProtectionInfoKVOImE6GetValEv(ptr noundef nonnull align 8 dereferenceable(8) %this1)
  store i64 %call, ptr %val, align 8
  %0 = load i64, ptr %val, align 8
  %call2 = call noundef i64 @_ZN7rocksdb8NPHash64EPKcmm(ptr noundef %column_family_id.addr, i64 noundef 4, i64 noundef 5344283794842014764)
  %xor = xor i64 %0, %call2
  store i64 %xor, ptr %val, align 8
  %1 = load i64, ptr %val, align 8
  call void @_ZN7rocksdb18ProtectionInfoKVOCImEC2Em(ptr noundef nonnull align 8 dereferenceable(8) %retval, i64 noundef %1)
  %coerce.dive = getelementptr inbounds %"class.rocksdb::ProtectionInfoKVOC", ptr %retval, i32 0, i32 0
  %coerce.dive3 = getelementptr inbounds %"class.rocksdb::ProtectionInfoKVO", ptr %coerce.dive, i32 0, i32 0
  %coerce.dive4 = getelementptr inbounds %"class.rocksdb::ProtectionInfo", ptr %coerce.dive3, i32 0, i32 0
  %2 = load i64, ptr %coerce.dive4, align 8
  ret i64 %2
}

; Function Attrs: mustprogress uwtable
define linkonce_odr i64 @_ZNK7rocksdb14ProtectionInfoImE10ProtectKVOERKNS_5SliceES4_NS_9ValueTypeE(ptr noundef nonnull align 8 dereferenceable(8) %this, ptr noundef nonnull align 8 dereferenceable(16) %key, ptr noundef nonnull align 8 dereferenceable(16) %value, i8 noundef zeroext %op_type) #0 comdat align 2 {
entry:
  %retval = alloca %"class.rocksdb::ProtectionInfoKVO", align 8
  %this.addr = alloca ptr, align 8
  %key.addr = alloca ptr, align 8
  %value.addr = alloca ptr, align 8
  %op_type.addr = alloca i8, align 1
  %val = alloca i64, align 8
  store ptr %this, ptr %this.addr, align 8
  store ptr %key, ptr %key.addr, align 8
  store ptr %value, ptr %value.addr, align 8
  store i8 %op_type, ptr %op_type.addr, align 1
  %this1 = load ptr, ptr %this.addr, align 8
  %call = call noundef i64 @_ZNK7rocksdb14ProtectionInfoImE6GetValEv(ptr noundef nonnull align 8 dereferenceable(8) %this1)
  store i64 %call, ptr %val, align 8
  %0 = load i64, ptr %val, align 8
  %1 = load ptr, ptr %key.addr, align 8
  %call2 = call noundef i64 @_ZN7rocksdb16GetSliceNPHash64ERKNS_5SliceEm(ptr noundef nonnull align 8 dereferenceable(16) %1, i64 noundef 0)
  %xor = xor i64 %0, %call2
  store i64 %xor, ptr %val, align 8
  %2 = load i64, ptr %val, align 8
  %3 = load ptr, ptr %value.addr, align 8
  %call3 = call noundef i64 @_ZN7rocksdb16GetSliceNPHash64ERKNS_5SliceEm(ptr noundef nonnull align 8 dereferenceable(16) %3, i64 noundef -3275615069716884213)
  %xor4 = xor i64 %2, %call3
  store i64 %xor4, ptr %val, align 8
  %4 = load i64, ptr %val, align 8
  %call5 = call noundef i64 @_ZN7rocksdb8NPHash64EPKcmm(ptr noundef %op_type.addr, i64 noundef 1, i64 noundef -6551230139433768426)
  %xor6 = xor i64 %4, %call5
  store i64 %xor6, ptr %val, align 8
  %5 = load i64, ptr %val, align 8
  call void @_ZN7rocksdb17ProtectionInfoKVOImEC2Em(ptr noundef nonnull align 8 dereferenceable(8) %retval, i64 noundef %5)
  %coerce.dive = getelementptr inbounds %"class.rocksdb::ProtectionInfoKVO", ptr %retval, i32 0, i32 0
  %coerce.dive7 = getelementptr inbounds %"class.rocksdb::ProtectionInfo", ptr %coerce.dive, i32 0, i32 0
  %6 = load i64, ptr %coerce.dive7, align 8
  ret i64 %6
}

; Function Attrs: mustprogress nounwind uwtable
define linkonce_odr void @_ZN7rocksdb14ProtectionInfoImEC2Ev(ptr noundef nonnull align 8 dereferenceable(8) %this) unnamed_addr #1 comdat align 2 {
entry:
  %this.addr = alloca ptr, align 8
  store ptr %this, ptr %this.addr, align 8
  %this1 = load ptr, ptr %this.addr, align 8
  %val_ = getelementptr inbounds %"class.rocksdb::ProtectionInfo", ptr %this1, i32 0, i32 0
  store i64 0, ptr %val_, align 8
  ret void
}

; Function Attrs: mustprogress uwtable
define internal void @_ZN7rocksdb12_GLOBAL__N_121ProtectionInfoUpdater14UpdateProtInfoEjRKNS_5SliceES4_NS_9ValueTypeE(ptr noalias sret(%"class.rocksdb::Status") align 8 %agg.result, ptr noundef nonnull align 8 dereferenceable(16) %this, i32 noundef %cf, ptr noundef nonnull align 8 dereferenceable(16) %key, ptr noundef nonnull align 8 dereferenceable(16) %val, i8 noundef zeroext %op_type) #0 align 2 {
entry:
  %result.ptr = alloca ptr, align 8
  %this.addr = alloca ptr, align 8
  %cf.addr = alloca i32, align 4
  %key.addr = alloca ptr, align 8
  %val.addr = alloca ptr, align 8
  %op_type.addr = alloca i8, align 1
  %ref.tmp = alloca %"class.rocksdb::ProtectionInfoKVOC", align 8
  %ref.tmp3 = alloca %"class.rocksdb::ProtectionInfoKVO", align 8
  %ref.tmp4 = alloca %"class.rocksdb::ProtectionInfo", align 8
  store ptr %agg.result, ptr %result.ptr, align 8
  store ptr %this, ptr %this.addr, align 8
  store i32 %cf, ptr %cf.addr, align 4
  store ptr %key, ptr %key.addr, align 8
  store ptr %val, ptr %val.addr, align 8
  store i8 %op_type, ptr %op_type.addr, align 1
  %this1 = load ptr, ptr %this.addr, align 8
  %prot_info_ = getelementptr inbounds %"class.rocksdb::(anonymous namespace)::ProtectionInfoUpdater", ptr %this1, i32 0, i32 1
  %0 = load ptr, ptr %prot_info_, align 8
  %tobool = icmp ne ptr %0, null
  br i1 %tobool, label %if.then, label %if.end

if.then:                                          ; preds = %entry
  %prot_info_2 = getelementptr inbounds %"class.rocksdb::(anonymous namespace)::ProtectionInfoUpdater", ptr %this1, i32 0, i32 1
  %1 = load ptr, ptr %prot_info_2, align 8
  %entries_ = getelementptr inbounds %"struct.rocksdb::WriteBatch::ProtectionInfo", ptr %1, i32 0, i32 0
  call void @llvm.memset.p0.i64(ptr align 8 %ref.tmp4, i8 0, i64 8, i1 false)
  call void @_ZN7rocksdb14ProtectionInfoImEC2Ev(ptr noundef nonnull align 8 dereferenceable(8) %ref.tmp4) #3
  %2 = load ptr, ptr %key.addr, align 8
  %3 = load ptr, ptr %val.addr, align 8
  %4 = load i8, ptr %op_type.addr, align 1
  %call = call i64 @_ZNK7rocksdb14ProtectionInfoImE10ProtectKVOERKNS_5SliceES4_NS_9ValueTypeE(ptr noundef nonnull align 8 dereferenceable(8) %ref.tmp4, ptr noundef nonnull align 8 dereferenceable(16) %2, ptr noundef nonnull align 8 dereferenceable(16) %3, i8 noundef zeroext %4)
  %coerce.dive = getelementptr inbounds %"class.rocksdb::ProtectionInfoKVO", ptr %ref.tmp3, i32 0, i32 0
  %coerce.dive5 = getelementptr inbounds %"class.rocksdb::ProtectionInfo", ptr %coerce.dive, i32 0, i32 0
  store i64 %call, ptr %coerce.dive5, align 8
  %5 = load i32, ptr %cf.addr, align 4
  %call6 = call i64 @_ZNK7rocksdb17ProtectionInfoKVOImE8ProtectCEj(ptr noundef nonnull align 8 dereferenceable(8) %ref.tmp3, i32 noundef %5)
  %coerce.dive7 = getelementptr inbounds %"class.rocksdb::ProtectionInfoKVOC", ptr %ref.tmp, i32 0, i32 0
  %coerce.dive8 = getelementptr inbounds %"class.rocksdb::ProtectionInfoKVO", ptr %coerce.dive7, i32 0, i32 0
  %coerce.dive9 = getelementptr inbounds %"class.rocksdb::ProtectionInfo", ptr %coerce.dive8, i32 0, i32 0
  store i64 %call6, ptr %coerce.dive9, align 8
  call void @_ZN7rocksdb10autovectorINS_18ProtectionInfoKVOCImEELm8EE12emplace_backIJS2_EEEvDpOT_(ptr noundef nonnull align 8 dereferenceable(104) %entries_, ptr noundef nonnull align 8 dereferenceable(8) %ref.tmp)
  br label %if.end

if.end:                                           ; preds = %if.then, %entry
  call void @_ZN7rocksdb6Status2OKEv(ptr sret(%"class.rocksdb::Status") align 8 %agg.result)
  ret void
}

; Function Attrs: mustprogress nounwind uwtable
define linkonce_odr void @_ZN7rocksdb5SliceC2EPKc(ptr noundef nonnull align 8 dereferenceable(16) %this, ptr noundef %s) unnamed_addr #1 comdat align 2 {
entry:
  %this.addr = alloca ptr, align 8
  %s.addr = alloca ptr, align 8
  store ptr %this, ptr %this.addr, align 8
  store ptr %s, ptr %s.addr, align 8
  %this1 = load ptr, ptr %this.addr, align 8
  %data_ = getelementptr inbounds %"class.rocksdb::Slice", ptr %this1, i32 0, i32 0
  %0 = load ptr, ptr %s.addr, align 8
  store ptr %0, ptr %data_, align 8
  %1 = load ptr, ptr %s.addr, align 8
  %cmp = icmp eq ptr %1, null
  br i1 %cmp, label %cond.true, label %cond.false

cond.true:                                        ; preds = %entry
  br label %cond.end

cond.false:                                       ; preds = %entry
  %2 = load ptr, ptr %s.addr, align 8
  %call = call i64 @strlen(ptr noundef %2) #21
  br label %cond.end

cond.end:                                         ; preds = %cond.false, %cond.true
  %cond = phi i64 [ 0, %cond.true ], [ %call, %cond.false ]
  %size_ = getelementptr inbounds %"class.rocksdb::Slice", ptr %this1, i32 0, i32 1
  store i64 %cond, ptr %size_, align 8
  ret void
}

; Function Attrs: mustprogress uwtable
define internal void @_ZN7rocksdb12_GLOBAL__N_121ProtectionInfoUpdater8DeleteCFEjRKNS_5SliceE(ptr noalias sret(%"class.rocksdb::Status") align 8 %agg.result, ptr noundef nonnull align 8 dereferenceable(16) %this, i32 noundef %cf, ptr noundef nonnull align 8 dereferenceable(16) %key) unnamed_addr #0 align 2 {
entry:
  %result.ptr = alloca ptr, align 8
  %this.addr = alloca ptr, align 8
  %cf.addr = alloca i32, align 4
  %key.addr = alloca ptr, align 8
  %ref.tmp = alloca %"class.rocksdb::Slice", align 8
  store ptr %agg.result, ptr %result.ptr, align 8
  store ptr %this, ptr %this.addr, align 8
  store i32 %cf, ptr %cf.addr, align 4
  store ptr %key, ptr %key.addr, align 8
  %this1 = load ptr, ptr %this.addr, align 8
  %0 = load i32, ptr %cf.addr, align 4
  %1 = load ptr, ptr %key.addr, align 8
  call void @_ZN7rocksdb5SliceC2EPKc(ptr noundef nonnull align 8 dereferenceable(16) %ref.tmp, ptr noundef @.str.28)
  call void @_ZN7rocksdb12_GLOBAL__N_121ProtectionInfoUpdater14UpdateProtInfoEjRKNS_5SliceES4_NS_9ValueTypeE(ptr sret(%"class.rocksdb::Status") align 8 %agg.result, ptr noundef nonnull align 8 dereferenceable(16) %this1, i32 noundef %0, ptr noundef nonnull align 8 dereferenceable(16) %1, ptr noundef nonnull align 8 dereferenceable(16) %ref.tmp, i8 noundef zeroext 0)
  ret void
}